; Function Attrs: nofree norecurse nosync nounwind memory(argmem: readwrite) uwtable
define void @Gia_ManTerStateInsert(ptr noundef %0, i32 noundef %1, ptr noundef captures(none) %2, i32 noundef %3) local_unnamed_addr #7 {
  %5 = icmp sgt i32 %1, 0
  br i1 %5, label %.lr.ph.preheader.i, label %Gia_ManTerStateHash.exit

.lr.ph.preheader.i:                               ; preds = %4
  %wide.trip.count.i = zext nneg i32 %1 to i64
  br label %.lr.ph.i

.lr.ph.i:                                         ; preds = %.lr.ph.i, %.lr.ph.preheader.i
  %indvars.iv.i = phi i64 [ 0, %.lr.ph.preheader.i ], [ %indvars.iv.next.i, %.lr.ph.i ]
  %.089.i = phi i32 [ 0, %.lr.ph.preheader.i ], [ %12, %.lr.ph.i ]
  %6 = getelementptr inbounds nuw i32, ptr %0, i64 %indvars.iv.i
  %7 = load i32, ptr %6, align 4
  %8 = and i64 %indvars.iv.i, 127
  %9 = getelementptr inbounds nuw [128 x i32], ptr @Gia_ManTerStateHash.s_FPrimes, i64 0, i64 %8
  %10 = load i32, ptr %9, align 4
  %11 = mul i32 %10, %7
  %12 = xor i32 %11, %.089.i
  %indvars.iv.next.i = add nuw nsw i64 %indvars.iv.i, 1
  %exitcond.not.i = icmp eq i64 %indvars.iv.next.i, %wide.trip.count.i
  br i1 %exitcond.not.i, label %Gia_ManTerStateHash.exit, label %.lr.ph.i, !llvm.loop !8

Gia_ManTerStateHash.exit:                         ; preds = %.lr.ph.i, %4
  %.08.lcssa.i = phi i32 [ 0, %4 ], [ %12, %.lr.ph.i ]
  %13 = urem i32 %.08.lcssa.i, %3
  %14 = sext i32 %13 to i64
  %15 = getelementptr inbounds ptr, ptr %2, i64 %14
  %16 = load ptr, ptr %15, align 8
  %17 = sext i32 %1 to i64
  %18 = getelementptr inbounds i32, ptr %0, i64 %17
  store ptr %16, ptr %18, align 8
  store ptr %0, ptr %15, align 8
  ret void
}